target datalayout = "e-m:e-p270:32:32-p271:32:32-p272:64:64-i64:64-i128:128-f80:128-n8:16:32:64-S128"
target triple = "x86_64-pc-linux-gnu"

%"class.boost::iostreams::detail::bzip2_base" = type <{ %"struct.boost::iostreams::bzip2_params", ptr, i8, [7 x i8] }>
%"struct.boost::iostreams::bzip2_params" = type { %union.anon.0, i32 }
%union.anon.0 = type { i32 }

; Function Attrs: mustprogress uwtable
define noundef i32 @_ZN5boost9iostreams6detail10bzip2_base3endEbSt9nothrow_t(ptr noundef nonnull align 8 dereferenceable(17) %0, i1 noundef zeroext %1) #0 align 2 {
  %3 = alloca i32, align 4
  %4 = alloca ptr, align 8
  %5 = alloca i8, align 1
  %6 = alloca ptr, align 8
  store ptr %0, ptr %4, align 8, !tbaa !3
  %7 = zext i1 %1 to i8
  store i8 %7, ptr %5, align 1, !tbaa !34
  %8 = load ptr, ptr %4, align 8
  %9 = getelementptr inbounds nuw %"class.boost::iostreams::detail::bzip2_base", ptr %8, i32 0, i32 2
  %10 = load i8, ptr %9, align 8, !tbaa !28, !range !35, !noundef !36
  %11 = trunc i8 %10 to i1
  br i1 %11, label %13, label %12

12:                                               ; preds = %2
  store i32 0, ptr %3, align 4
  br label %27

13:                                               ; preds = %2
  %14 = getelementptr inbounds nuw %"class.boost::iostreams::detail::bzip2_base", ptr %8, i32 0, i32 2
  store i8 0, ptr %14, align 8, !tbaa !28
  call void @llvm.lifetime.start.p0(i64 8, ptr %6) #15
  %15 = getelementptr inbounds nuw %"class.boost::iostreams::detail::bzip2_base", ptr %8, i32 0, i32 1
  %16 = load ptr, ptr %15, align 8, !tbaa !24
  store ptr %16, ptr %6, align 8, !tbaa !3
  %17 = load i8, ptr %5, align 1, !tbaa !34, !range !35, !noundef !36
  %18 = trunc i8 %17 to i1
  br i1 %18, label %19, label %22

19:                                               ; preds = %13
  %20 = load ptr, ptr %6, align 8, !tbaa !3
  %21 = call i32 @BZ2_bzCompressEnd(ptr noundef %20)
  br label %25

22:                                               ; preds = %13
  %23 = load ptr, ptr %6, align 8, !tbaa !3
  %24 = call i32 @BZ2_bzDecompressEnd(ptr noundef %23)
  br label %25

25:                                               ; preds = %22, %19
  %26 = phi i32 [ %21, %19 ], [ %24, %22 ]
  store i32 %26, ptr %3, align 4
  call void @llvm.lifetime.end.p0(i64 8, ptr %6) #15
  br label %27

27:                                               ; preds = %25, %12
  %28 = load i32, ptr %3, align 4
  ret i32 %28
}