; Function Attrs: mustprogress uwtable
define noundef i32 @_ZN5boost9iostreams6detail10bzip2_base3endEbSt9nothrow_t(ptr nocapture noundef nonnull align 8 dereferenceable(17) %0, i1 noundef zeroext %1) local_unnamed_addr #0 align 2 {
  %3 = getelementptr inbounds nuw i8, ptr %0, i64 16
  %4 = load i8, ptr %3, align 8, !tbaa !27, !range !33, !noundef !34
  %5 = trunc nuw i8 %4 to i1
  br i1 %5, label %6, label %13

6:                                                ; preds = %2
  store i8 0, ptr %3, align 8, !tbaa !27
  %7 = getelementptr inbounds nuw i8, ptr %0, i64 8
  %8 = load ptr, ptr %7, align 8, !tbaa !23
  br i1 %1, label %9, label %11

9:                                                ; preds = %6
  %10 = tail call i32 @BZ2_bzCompressEnd(ptr noundef %8)
  br label %13

11:                                               ; preds = %6
  %12 = tail call i32 @BZ2_bzDecompressEnd(ptr noundef %8)
  br label %13

13:                                               ; preds = %9, %11, %2
  %.0 = phi i32 [ 0, %2 ], [ %10, %9 ], [ %12, %11 ]
  ret i32 %.0
}